target datalayout = "e-m:e-p270:32:32-p271:32:32-p272:64:64-i64:64-i128:128-f80:128-n8:16:32:64-S128"
target triple = "x86_64-pc-linux-gnu"

%"class.icu_77::MaybeStackArray" = type <{ ptr, i32, i8, [40 x i8], [3 x i8] }>
%"class.icu_77::CharString" = type { %"class.icu_77::MaybeStackArray", i32, [4 x i8] }
%"class.icu_77::MeasureUnitImpl" = type { i32, %"class.icu_77::MaybeStackVector", %"class.icu_77::CharString", i64 }
%"class.icu_77::MaybeStackVector" = type { %"class.icu_77::MemoryPool" }
%"class.icu_77::MemoryPool" = type { i32, %"class.icu_77::MaybeStackArray.0" }
%"class.icu_77::MaybeStackArray.0" = type { ptr, i32, i8, [8 x ptr] }
%"class.icu_77::UObject" = type { ptr }
%"struct.icu_77::SingleUnitImpl" = type { i32, i32, i32 }
%"class.icu_77::MeasureUnit" = type <{ %"class.icu_77::UObject", ptr, i16, i8, [5 x i8] }>

; Function Attrs: mustprogress nounwind uwtable
define linkonce_odr noundef nonnull align 8 dereferenceable(8) ptr @_ZN6icu_7715MaybeStackArrayIPNS_14SingleUnitImplELi8EEixEl(ptr noundef nonnull align 8 dereferenceable(80) %0, i64 noundef %1) #0 comdat align 2 {
  %3 = alloca ptr, align 8
  %4 = alloca i64, align 8
  store ptr %0, ptr %3, align 8, !tbaa !180
  store i64 %1, ptr %4, align 8, !tbaa !18
  %5 = load ptr, ptr %3, align 8
  %6 = getelementptr inbounds nuw %"class.icu_77::MaybeStackArray.0", ptr %5, i32 0, i32 0
  %7 = load ptr, ptr %6, align 8, !tbaa !182
  %8 = load i64, ptr %4, align 8, !tbaa !18
  %9 = getelementptr inbounds ptr, ptr %7, i64 %8
  ret ptr %9
}

; Function Attrs: mustprogress nounwind uwtable
define weak_odr noundef nonnull align 1 dereferenceable(1) ptr @_ZN6icu_7715MaybeStackArrayIcLi40EEixEl(ptr noundef nonnull align 8 dereferenceable(53) %0, i64 noundef %1) #0 comdat align 2 {
  %3 = alloca ptr, align 8
  %4 = alloca i64, align 8
  store ptr %0, ptr %3, align 8, !tbaa !3
  store i64 %1, ptr %4, align 8, !tbaa !18
  %5 = load ptr, ptr %3, align 8
  %6 = getelementptr inbounds nuw %"class.icu_77::MaybeStackArray", ptr %5, i32 0, i32 0
  %7 = load ptr, ptr %6, align 8, !tbaa !8
  %8 = load i64, ptr %4, align 8, !tbaa !18
  %9 = getelementptr inbounds i8, ptr %7, i64 %8
  ret ptr %9
}

; Function Attrs: mustprogress nounwind uwtable
define linkonce_odr noundef ptr @_ZN6icu_7716MaybeStackVectorINS_14SingleUnitImplELi8EEixEl(ptr noundef nonnull align 8 dereferenceable(88) %0, i64 noundef %1) #0 comdat align 2 {
  %3 = alloca ptr, align 8
  %4 = alloca i64, align 8
  store ptr %0, ptr %3, align 8, !tbaa !91
  store i64 %1, ptr %4, align 8, !tbaa !18
  %5 = load ptr, ptr %3, align 8
  %6 = getelementptr inbounds nuw %"class.icu_77::MemoryPool", ptr %5, i32 0, i32 1
  %7 = load i64, ptr %4, align 8, !tbaa !18
  %8 = call noundef nonnull align 8 dereferenceable(8) ptr @_ZN6icu_7715MaybeStackArrayIPNS_14SingleUnitImplELi8EEixEl(ptr noundef nonnull align 8 dereferenceable(80) %6, i64 noundef %7)
  %9 = load ptr, ptr %8, align 8, !tbaa !79
  ret ptr %9
}

; Function Attrs: mustprogress nounwind uwtable
define linkonce_odr noundef i32 @_ZNK6icu_7716MaybeStackVectorINS_14SingleUnitImplELi8EE6lengthEv(ptr noundef nonnull align 8 dereferenceable(88) %0) #0 comdat align 2 {
  %2 = alloca ptr, align 8
  store ptr %0, ptr %2, align 8, !tbaa !91
  %3 = load ptr, ptr %2, align 8
  %4 = getelementptr inbounds nuw %"class.icu_77::MemoryPool", ptr %3, i32 0, i32 0
  %5 = load i32, ptr %4, align 8, !tbaa !93
  ret i32 %5
}

; Function Attrs: mustprogress nounwind uwtable
define linkonce_odr noundef nonnull align 8 dereferenceable(60) ptr @_ZN6icu_7710CharString5clearEv(ptr noundef nonnull align 8 dereferenceable(60) %0) #0 comdat align 2 {
  %2 = alloca ptr, align 8
  store ptr %0, ptr %2, align 8, !tbaa !32
  %3 = load ptr, ptr %2, align 8
  %4 = getelementptr inbounds nuw %"class.icu_77::CharString", ptr %3, i32 0, i32 1
  store i32 0, ptr %4, align 8, !tbaa !34
  %5 = getelementptr inbounds nuw %"class.icu_77::CharString", ptr %3, i32 0, i32 0
  %6 = call noundef nonnull align 1 dereferenceable(1) ptr @_ZN6icu_7715MaybeStackArrayIcLi40EEixEl(ptr noundef nonnull align 8 dereferenceable(53) %5, i64 noundef 0)
  store i8 0, ptr %6, align 1, !tbaa !36
  ret ptr %3
}

; Function Attrs: mustprogress uwtable
define void @_ZNO6icu_7715MeasureUnitImpl5buildER10UErrorCode(ptr dead_on_unwind noalias writable sret(%"class.icu_77::MeasureUnit") align 8 %0, ptr noundef nonnull align 8 dereferenceable(168) %1, ptr noundef nonnull align 4 dereferenceable(4) %2) #1 align 2 {
  %4 = alloca ptr, align 8
  %5 = alloca ptr, align 8
  %6 = alloca ptr, align 8
  store ptr %0, ptr %4, align 8
  store ptr %1, ptr %5, align 8, !tbaa !25
  store ptr %2, ptr %6, align 8, !tbaa !22
  %7 = load ptr, ptr %5, align 8
  %8 = load ptr, ptr %6, align 8, !tbaa !22
  call void @_ZN6icu_7715MeasureUnitImpl9serializeER10UErrorCode(ptr noundef nonnull align 8 dereferenceable(168) %7, ptr noundef nonnull align 4 dereferenceable(4) %8)
  call void @_ZN6icu_7711MeasureUnitC1EONS_15MeasureUnitImplE(ptr noundef nonnull align 8 dereferenceable(19) %0, ptr noundef nonnull align 8 dereferenceable(168) %7)
  ret void
}

; Function Attrs: mustprogress uwtable
define void @_ZN6icu_7715MeasureUnitImpl14takeReciprocalER10UErrorCode(ptr noundef nonnull align 8 dereferenceable(168) %0, ptr noundef nonnull align 4 dereferenceable(4) %1) #1 align 2 {
  %3 = alloca ptr, align 8
  %4 = alloca ptr, align 8
  %5 = alloca i32, align 4
  store ptr %0, ptr %3, align 8, !tbaa !25
  store ptr %1, ptr %4, align 8, !tbaa !22
  %6 = load ptr, ptr %3, align 8
  %7 = getelementptr inbounds nuw %"class.icu_77::MeasureUnitImpl", ptr %6, i32 0, i32 2
  %8 = call noundef nonnull align 8 dereferenceable(60) ptr @_ZN6icu_7710CharString5clearEv(ptr noundef nonnull align 8 dereferenceable(60) %7)
  call void @llvm.lifetime.start.p0(i64 4, ptr %5) #14
  store i32 0, ptr %5, align 4, !tbaa !14
  br label %9

9:                                                ; preds = %23, %2
  %10 = load i32, ptr %5, align 4, !tbaa !14
  %11 = getelementptr inbounds nuw %"class.icu_77::MeasureUnitImpl", ptr %6, i32 0, i32 1
  %12 = call noundef i32 @_ZNK6icu_7716MaybeStackVectorINS_14SingleUnitImplELi8EE6lengthEv(ptr noundef nonnull align 8 dereferenceable(88) %11)
  %13 = icmp slt i32 %10, %12
  br i1 %13, label %15, label %14

14:                                               ; preds = %9
  call void @llvm.lifetime.end.p0(i64 4, ptr %5) #14
  br label %26

15:                                               ; preds = %9
  %16 = getelementptr inbounds nuw %"class.icu_77::MeasureUnitImpl", ptr %6, i32 0, i32 1
  %17 = load i32, ptr %5, align 4, !tbaa !14
  %18 = sext i32 %17 to i64
  %19 = call noundef ptr @_ZN6icu_7716MaybeStackVectorINS_14SingleUnitImplELi8EEixEl(ptr noundef nonnull align 8 dereferenceable(88) %16, i64 noundef %18)
  %20 = getelementptr inbounds nuw %"struct.icu_77::SingleUnitImpl", ptr %19, i32 0, i32 2
  %21 = load i32, ptr %20, align 4, !tbaa !72
  %22 = mul nsw i32 %21, -1
  store i32 %22, ptr %20, align 4, !tbaa !72
  br label %23

23:                                               ; preds = %15
  %24 = load i32, ptr %5, align 4, !tbaa !14
  %25 = add nsw i32 %24, 1
  store i32 %25, ptr %5, align 4, !tbaa !14
  br label %9, !llvm.loop !78

26:                                               ; preds = %14
  ret void
}

; Function Attrs: mustprogress uwtable
define void @_ZNK6icu_7711MeasureUnit10reciprocalER10UErrorCode(ptr dead_on_unwind noalias writable sret(%"class.icu_77::MeasureUnit") align 8 %0, ptr noundef nonnull align 8 dereferenceable(19) %1, ptr noundef nonnull align 4 dereferenceable(4) %2) #1 align 2 personality ptr @__gxx_personality_v0 {
  %4 = alloca ptr, align 8
  %5 = alloca ptr, align 8
  %6 = alloca ptr, align 8
  %7 = alloca %"class.icu_77::MeasureUnitImpl", align 8
  %8 = alloca ptr, align 8
  %9 = alloca i32, align 4
  %10 = alloca i32, align 4
  store ptr %0, ptr %4, align 8
  store ptr %1, ptr %5, align 8, !tbaa !84
  store ptr %2, ptr %6, align 8, !tbaa !22
  %11 = load ptr, ptr %5, align 8
  call void @llvm.lifetime.start.p0(i64 168, ptr %7) #14
  %12 = load ptr, ptr %6, align 8, !tbaa !22
  call void @_ZN6icu_7715MeasureUnitImpl23forMeasureUnitMaybeCopyERKNS_11MeasureUnitER10UErrorCode(ptr dead_on_unwind writable sret(%"class.icu_77::MeasureUnitImpl") align 8 %7, ptr noundef nonnull align 8 dereferenceable(19) %11, ptr noundef nonnull align 4 dereferenceable(4) %12)
  %13 = getelementptr inbounds nuw %"class.icu_77::MeasureUnitImpl", ptr %7, i32 0, i32 3
  %14 = load i64, ptr %13, align 8, !tbaa !60
  %15 = icmp ne i64 %14, 0
  br i1 %15, label %16, label %23

16:                                               ; preds = %3
  %17 = load ptr, ptr %6, align 8, !tbaa !22
  store i32 1, ptr %17, align 4, !tbaa !15
  invoke void @_ZN6icu_7711MeasureUnitC1Ev(ptr noundef nonnull align 8 dereferenceable(19) %0)
          to label %18 unwind label %19

18:                                               ; preds = %16
  store i32 1, ptr %10, align 4
  br label %28

19:                                               ; preds = %25, %23, %16
  %20 = landingpad { ptr, i32 }
          cleanup
  %21 = extractvalue { ptr, i32 } %20, 0
  store ptr %21, ptr %8, align 8
  %22 = extractvalue { ptr, i32 } %20, 1
  store i32 %22, ptr %9, align 4
  call void @_ZN6icu_7715MeasureUnitImplD2Ev(ptr noundef nonnull align 8 dereferenceable(168) %7) #14
  call void @llvm.lifetime.end.p0(i64 168, ptr %7) #14
  br label %29

23:                                               ; preds = %3
  %24 = load ptr, ptr %6, align 8, !tbaa !22
  invoke void @_ZN6icu_7715MeasureUnitImpl14takeReciprocalER10UErrorCode(ptr noundef nonnull align 8 dereferenceable(168) %7, ptr noundef nonnull align 4 dereferenceable(4) %24)
          to label %25 unwind label %19

25:                                               ; preds = %23
  %26 = load ptr, ptr %6, align 8, !tbaa !22
  invoke void @_ZNO6icu_7715MeasureUnitImpl5buildER10UErrorCode(ptr dead_on_unwind writable sret(%"class.icu_77::MeasureUnit") align 8 %0, ptr noundef nonnull align 8 dereferenceable(168) %7, ptr noundef nonnull align 4 dereferenceable(4) %26)
          to label %27 unwind label %19

27:                                               ; preds = %25
  store i32 1, ptr %10, align 4
  br label %28

28:                                               ; preds = %27, %18
  call void @_ZN6icu_7715MeasureUnitImplD2Ev(ptr noundef nonnull align 8 dereferenceable(168) %7) #14
  call void @llvm.lifetime.end.p0(i64 168, ptr %7) #14
  ret void

29:                                               ; preds = %19
  %30 = load ptr, ptr %8, align 8
  %31 = load i32, ptr %9, align 4
  %32 = insertvalue { ptr, i32 } poison, ptr %30, 0
  %33 = insertvalue { ptr, i32 } %32, i32 %31, 1
  resume { ptr, i32 } %33
}