; Function Attrs: mustprogress uwtable
define void @_ZNK6icu_7711MeasureUnit10reciprocalER10UErrorCode(ptr dead_on_unwind noalias writable sret(%"class.icu_77::MeasureUnit") align 8 %0, ptr noundef nonnull align 8 dereferenceable(19) %1, ptr noundef nonnull align 4 dereferenceable(4) %2) local_unnamed_addr #1 align 2 personality ptr @__gxx_personality_v0 {
  %4 = alloca %"class.icu_77::MeasureUnitImpl", align 8
  call void @llvm.lifetime.start.p0(i64 168, ptr nonnull %4) #18
  call void @_ZN6icu_7715MeasureUnitImpl23forMeasureUnitMaybeCopyERKNS_11MeasureUnitER10UErrorCode(ptr dead_on_unwind nonnull writable sret(%"class.icu_77::MeasureUnitImpl") align 8 %4, ptr noundef nonnull align 8 dereferenceable(19) %1, ptr noundef nonnull align 4 dereferenceable(4) %2)
  %5 = getelementptr inbounds nuw i8, ptr %4, i64 160
  %6 = load i64, ptr %5, align 8, !tbaa !81
  %.not = icmp eq i64 %6, 0
  br i1 %.not, label %10, label %7

7:                                                ; preds = %3
  store i32 1, ptr %2, align 4, !tbaa !13
  invoke void @_ZN6icu_7711MeasureUnitC1Ev(ptr noundef nonnull align 8 dereferenceable(19) %0)
          to label %_ZNO6icu_7715MeasureUnitImpl5buildER10UErrorCode.exit unwind label %8

8:                                                ; preds = %.noexc, %_ZN6icu_7715MeasureUnitImpl14takeReciprocalER10UErrorCode.exit, %7
  %9 = landingpad { ptr, i32 }
          cleanup
  call void @_ZN6icu_7715MeasureUnitImplD2Ev(ptr noundef nonnull align 8 dereferenceable(168) %4) #18
  call void @llvm.lifetime.end.p0(i64 168, ptr nonnull %4) #18
  resume { ptr, i32 } %9

10:                                               ; preds = %3
  %11 = getelementptr inbounds nuw i8, ptr %4, i64 96
  %12 = getelementptr inbounds nuw i8, ptr %4, i64 152
  store i32 0, ptr %12, align 8, !tbaa !15
  %13 = load ptr, ptr %11, align 8, !tbaa !3
  store i8 0, ptr %13, align 1, !tbaa !17
  %14 = getelementptr inbounds nuw i8, ptr %4, i64 8
  %15 = load i32, ptr %14, align 8, !tbaa !28
  %16 = icmp sgt i32 %15, 0
  br i1 %16, label %.lr.ph.i, label %_ZN6icu_7715MeasureUnitImpl14takeReciprocalER10UErrorCode.exit

.lr.ph.i:                                         ; preds = %10
  %17 = getelementptr inbounds nuw i8, ptr %4, i64 16
  %18 = load ptr, ptr %17, align 8, !tbaa !33
  %wide.trip.count.i = zext nneg i32 %15 to i64
  br label %19

19:                                               ; preds = %19, %.lr.ph.i
  %indvars.iv.i = phi i64 [ 0, %.lr.ph.i ], [ %indvars.iv.next.i, %19 ]
  %20 = getelementptr inbounds nuw ptr, ptr %18, i64 %indvars.iv.i
  %21 = load ptr, ptr %20, align 8, !tbaa !34
  %22 = getelementptr inbounds nuw i8, ptr %21, i64 8
  %23 = load i32, ptr %22, align 4, !tbaa !36
  %24 = sub nsw i32 0, %23
  store i32 %24, ptr %22, align 4, !tbaa !36
  %indvars.iv.next.i = add nuw nsw i64 %indvars.iv.i, 1
  %exitcond.not.i = icmp eq i64 %indvars.iv.next.i, %wide.trip.count.i
  br i1 %exitcond.not.i, label %_ZN6icu_7715MeasureUnitImpl14takeReciprocalER10UErrorCode.exit, label %19, !llvm.loop !39

_ZN6icu_7715MeasureUnitImpl14takeReciprocalER10UErrorCode.exit: ; preds = %19, %10
  invoke void @_ZN6icu_7715MeasureUnitImpl9serializeER10UErrorCode(ptr noundef nonnull align 8 dereferenceable(168) %4, ptr noundef nonnull align 4 dereferenceable(4) %2)
          to label %.noexc unwind label %8

.noexc:                                           ; preds = %_ZN6icu_7715MeasureUnitImpl14takeReciprocalER10UErrorCode.exit
  invoke void @_ZN6icu_7711MeasureUnitC1EONS_15MeasureUnitImplE(ptr noundef nonnull align 8 dereferenceable(19) %0, ptr noundef nonnull align 8 dereferenceable(168) %4)
          to label %_ZNO6icu_7715MeasureUnitImpl5buildER10UErrorCode.exit unwind label %8

_ZNO6icu_7715MeasureUnitImpl5buildER10UErrorCode.exit: ; preds = %.noexc, %7
  %25 = getelementptr inbounds nuw i8, ptr %4, i64 96
  call void @_ZN6icu_7715MaybeStackArrayIcLi40EED1Ev(ptr noundef nonnull align 8 dereferenceable(60) %25) #18
  %26 = getelementptr inbounds nuw i8, ptr %4, i64 8
  %27 = load i32, ptr %26, align 8, !tbaa !28
  %28 = icmp sgt i32 %27, 0
  br i1 %28, label %.lr.ph.i.i, label %._crit_edge.i.i

.lr.ph.i.i:                                       ; preds = %_ZNO6icu_7715MeasureUnitImpl5buildER10UErrorCode.exit
  %29 = getelementptr inbounds nuw i8, ptr %4, i64 16
  br label %38

._crit_edge.i.i:                                  ; preds = %45, %_ZNO6icu_7715MeasureUnitImpl5buildER10UErrorCode.exit
  %30 = getelementptr inbounds nuw i8, ptr %4, i64 28
  %31 = load i8, ptr %30, align 4, !tbaa !45
  %.not.i.i.i.i = icmp eq i8 %31, 0
  br i1 %.not.i.i.i.i, label %_ZN6icu_7715MeasureUnitImplD2Ev.exit, label %32

32:                                               ; preds = %._crit_edge.i.i
  %33 = getelementptr inbounds nuw i8, ptr %4, i64 16
  %34 = load ptr, ptr %33, align 8, !tbaa !33
  invoke void @uprv_free_77(ptr noundef %34)
          to label %_ZN6icu_7715MeasureUnitImplD2Ev.exit unwind label %35

35:                                               ; preds = %32
  %36 = landingpad { ptr, i32 }
          catch ptr null
  %37 = extractvalue { ptr, i32 } %36, 0
  call void @__clang_call_terminate(ptr %37) #20
  unreachable

38:                                               ; preds = %45, %.lr.ph.i.i
  %39 = phi i32 [ %27, %.lr.ph.i.i ], [ %46, %45 ]
  %indvars.iv.i.i = phi i64 [ 0, %.lr.ph.i.i ], [ %indvars.iv.next.i.i, %45 ]
  %40 = load ptr, ptr %29, align 8, !tbaa !33
  %41 = getelementptr inbounds nuw ptr, ptr %40, i64 %indvars.iv.i.i
  %42 = load ptr, ptr %41, align 8, !tbaa !34
  %43 = icmp eq ptr %42, null
  br i1 %43, label %45, label %44

44:                                               ; preds = %38
  call void @_ZN6icu_777UMemorydlEPv(ptr noundef nonnull %42) #18
  %.pre.i.i = load i32, ptr %26, align 8, !tbaa !28
  br label %45

45:                                               ; preds = %44, %38
  %46 = phi i32 [ %39, %38 ], [ %.pre.i.i, %44 ]
  %indvars.iv.next.i.i = add nuw nsw i64 %indvars.iv.i.i, 1
  %47 = sext i32 %46 to i64
  %48 = icmp slt i64 %indvars.iv.next.i.i, %47
  br i1 %48, label %38, label %._crit_edge.i.i, !llvm.loop !46

_ZN6icu_7715MeasureUnitImplD2Ev.exit:             ; preds = %._crit_edge.i.i, %32
  call void @llvm.lifetime.end.p0(i64 168, ptr nonnull %4) #18
  ret void
}